target datalayout = "e-m:e-p270:32:32-p271:32:32-p272:64:64-i64:64-i128:128-f80:128-n8:16:32:64-S128"
target triple = "x86_64-pc-linux-gnu"

%"class.std::allocator" = type { i8 }
%"class.std::__cxx11::basic_string" = type { %"struct.std::__cxx11::basic_string<char>::_Alloc_hider", i64, %union.anon }
%"struct.std::__cxx11::basic_string<char>::_Alloc_hider" = type { ptr }
%union.anon = type { i64, [8 x i8] }

@_ZZN32pxrInternal_v0_24__pxrReserved__17SdfPathExpression10EverythingEvE13theEverything = internal global ptr null, align 8
@_ZGVZN32pxrInternal_v0_24__pxrReserved__17SdfPathExpression10EverythingEvE13theEverything = internal global i64 0, align 8
@.str.6 = private unnamed_addr constant [3 x i8] c"//\00", align 1
@_ZN32pxrInternal_v0_24__pxrReserved__17SdfPathExpressionC1ERKNSt7__cxx1112basic_stringIcSt11char_traitsIcESaIcEEES8_ = unnamed_addr alias void (ptr, ptr, ptr), ptr @_ZN32pxrInternal_v0_24__pxrReserved__17SdfPathExpressionC2ERKNSt7__cxx1112basic_stringIcSt11char_traitsIcESaIcEEES8_

; Function Attrs: mustprogress uwtable
define noundef nonnull align 8 dereferenceable(104) ptr @_ZN32pxrInternal_v0_24__pxrReserved__17SdfPathExpression10EverythingEv() #0 align 2 personality ptr @__gxx_personality_v0 {
  %1 = alloca ptr, align 8
  %2 = alloca i32, align 4
  %3 = alloca %"class.std::__cxx11::basic_string", align 8
  %4 = alloca %"class.std::allocator", align 1
  %5 = alloca %"class.std::__cxx11::basic_string", align 8
  %6 = alloca i1, align 1
  %7 = load atomic i8, ptr @_ZGVZN32pxrInternal_v0_24__pxrReserved__17SdfPathExpression10EverythingEvE13theEverything acquire, align 8
  %8 = icmp eq i8 %7, 0
  br i1 %8, label %9, label %17, !prof !4

9:                                                ; preds = %0
  %10 = call i32 @__cxa_guard_acquire(ptr @_ZGVZN32pxrInternal_v0_24__pxrReserved__17SdfPathExpression10EverythingEvE13theEverything) #3
  %11 = icmp ne i32 %10, 0
  br i1 %11, label %12, label %17

12:                                               ; preds = %9
  %13 = invoke noalias noundef nonnull ptr @_Znwm(i64 noundef 104) #16
          to label %14 unwind label %19

14:                                               ; preds = %12
  store i1 true, ptr %6, align 1
  call void @_ZNSaIcEC1Ev(ptr noundef nonnull align 1 dereferenceable(1) %4) #3
  invoke void @_ZNSt7__cxx1112basic_stringIcSt11char_traitsIcESaIcEEC2IS3_EEPKcRKS3_(ptr noundef nonnull align 8 dereferenceable(32) %3, ptr noundef @.str.6, ptr noundef nonnull align 1 dereferenceable(1) %4)
          to label %15 unwind label %23

15:                                               ; preds = %14
  call void @_ZNSt7__cxx1112basic_stringIcSt11char_traitsIcESaIcEEC1Ev(ptr noundef nonnull align 8 dereferenceable(32) %5) #3
  invoke void @_ZN32pxrInternal_v0_24__pxrReserved__17SdfPathExpressionC1ERKNSt7__cxx1112basic_stringIcSt11char_traitsIcESaIcEEES8_(ptr noundef nonnull align 8 dereferenceable(104) %13, ptr noundef nonnull align 8 dereferenceable(32) %3, ptr noundef nonnull align 8 dereferenceable(32) %5)
          to label %16 unwind label %27

16:                                               ; preds = %15
  store i1 false, ptr %6, align 1
  call void @_ZNSt7__cxx1112basic_stringIcSt11char_traitsIcESaIcEED1Ev(ptr noundef nonnull align 8 dereferenceable(32) %5) #3
  call void @_ZNSt7__cxx1112basic_stringIcSt11char_traitsIcESaIcEED1Ev(ptr noundef nonnull align 8 dereferenceable(32) %3) #3
  call void @_ZNSaIcED1Ev(ptr noundef nonnull align 1 dereferenceable(1) %4) #3
  store ptr %13, ptr @_ZZN32pxrInternal_v0_24__pxrReserved__17SdfPathExpression10EverythingEvE13theEverything, align 8
  call void @__cxa_guard_release(ptr @_ZGVZN32pxrInternal_v0_24__pxrReserved__17SdfPathExpression10EverythingEvE13theEverything) #3
  br label %17

17:                                               ; preds = %16, %9, %0
  %18 = load ptr, ptr @_ZZN32pxrInternal_v0_24__pxrReserved__17SdfPathExpression10EverythingEvE13theEverything, align 8
  ret ptr %18

19:                                               ; preds = %12
  %20 = landingpad { ptr, i32 }
          cleanup
  %21 = extractvalue { ptr, i32 } %20, 0
  store ptr %21, ptr %1, align 8
  %22 = extractvalue { ptr, i32 } %20, 1
  store i32 %22, ptr %2, align 4
  br label %35

23:                                               ; preds = %14
  %24 = landingpad { ptr, i32 }
          cleanup
  %25 = extractvalue { ptr, i32 } %24, 0
  store ptr %25, ptr %1, align 8
  %26 = extractvalue { ptr, i32 } %24, 1
  store i32 %26, ptr %2, align 4
  br label %31

27:                                               ; preds = %15
  %28 = landingpad { ptr, i32 }
          cleanup
  %29 = extractvalue { ptr, i32 } %28, 0
  store ptr %29, ptr %1, align 8
  %30 = extractvalue { ptr, i32 } %28, 1
  store i32 %30, ptr %2, align 4
  call void @_ZNSt7__cxx1112basic_stringIcSt11char_traitsIcESaIcEED1Ev(ptr noundef nonnull align 8 dereferenceable(32) %5) #3
  call void @_ZNSt7__cxx1112basic_stringIcSt11char_traitsIcESaIcEED1Ev(ptr noundef nonnull align 8 dereferenceable(32) %3) #3
  br label %31

31:                                               ; preds = %27, %23
  call void @_ZNSaIcED1Ev(ptr noundef nonnull align 1 dereferenceable(1) %4) #3
  %32 = load i1, ptr %6, align 1
  br i1 %32, label %33, label %34

33:                                               ; preds = %31
  call void @_ZdlPvm(ptr noundef %13, i64 noundef 104) #17
  br label %34

34:                                               ; preds = %33, %31
  br label %35

35:                                               ; preds = %34, %19
  call void @__cxa_guard_abort(ptr @_ZGVZN32pxrInternal_v0_24__pxrReserved__17SdfPathExpression10EverythingEvE13theEverything) #3
  br label %36

36:                                               ; preds = %35
  %37 = load ptr, ptr %1, align 8
  %38 = load i32, ptr %2, align 4
  %39 = insertvalue { ptr, i32 } poison, ptr %37, 0
  %40 = insertvalue { ptr, i32 } %39, i32 %38, 1
  resume { ptr, i32 } %40
}